target datalayout = "e-m:e-p270:32:32-p271:32:32-p272:64:64-i64:64-i128:128-f80:128-n8:16:32:64-S128"
target triple = "x86_64-unknown-linux-gnu"

%class.mpz = type { i32, i8, ptr }
%"class.polynomial::manager" = type { ptr }

; Function Attrs: mustprogress nounwind uwtable
define linkonce_odr hidden void @_ZN3mpzC2Ei(ptr noundef nonnull align 8 dereferenceable(16) %this, i32 noundef %v) unnamed_addr #4 comdat align 2 {
entry:
  %this.addr = alloca ptr, align 8
  %v.addr = alloca i32, align 4
  store ptr %this, ptr %this.addr, align 8
  store i32 %v, ptr %v.addr, align 4
  %this1 = load ptr, ptr %this.addr, align 8
  %m_val = getelementptr inbounds %class.mpz, ptr %this1, i32 0, i32 0
  %0 = load i32, ptr %v.addr, align 4
  store i32 %0, ptr %m_val, align 8
  %m_kind = getelementptr inbounds %class.mpz, ptr %this1, i32 0, i32 1
  %bf.load = load i8, ptr %m_kind, align 4
  %bf.clear = and i8 %bf.load, -2
  %bf.set = or i8 %bf.clear, 0
  store i8 %bf.set, ptr %m_kind, align 4
  %m_owner = getelementptr inbounds %class.mpz, ptr %this1, i32 0, i32 1
  %bf.load2 = load i8, ptr %m_owner, align 4
  %bf.clear3 = and i8 %bf.load2, -3
  %bf.set4 = or i8 %bf.clear3, 0
  store i8 %bf.set4, ptr %m_owner, align 4
  %m_ptr = getelementptr inbounds %class.mpz, ptr %this1, i32 0, i32 2
  store ptr null, ptr %m_ptr, align 8
  ret void
}

; Function Attrs: mustprogress uwtable
define linkonce_odr hidden noundef ptr @_ZN10polynomial7manager3imp3mulEPKNS_10polynomialES4_(ptr noundef nonnull align 8 dereferenceable(824) %this, ptr noundef %p1, ptr noundef %p2) #5 comdat align 2 {
entry:
  %this.addr = alloca ptr, align 8
  %p1.addr = alloca ptr, align 8
  %p2.addr = alloca ptr, align 8
  %zero = alloca %class.mpz, align 8
  store ptr %this, ptr %this.addr, align 8
  store ptr %p1, ptr %p1.addr, align 8
  store ptr %p2, ptr %p2.addr, align 8
  %this1 = load ptr, ptr %this.addr, align 8
  call void @_ZN3mpzC2Ei(ptr noundef nonnull align 8 dereferenceable(16) %zero, i32 noundef 0)
  %0 = load ptr, ptr %p1.addr, align 8
  %1 = load ptr, ptr %p2.addr, align 8
  %call = call noundef ptr @_ZN10polynomial7manager3imp6muladdEPKNS_10polynomialES4_RK3mpz(ptr noundef nonnull align 8 dereferenceable(824) %this1, ptr noundef %0, ptr noundef %1, ptr noundef nonnull align 8 dereferenceable(16) %zero)
  ret ptr %call
}

; Function Attrs: mustprogress uwtable
define hidden noundef ptr @_ZN10polynomial7manager3mulEPKNS_10polynomialES3_(ptr noundef nonnull align 8 dereferenceable(8) %this, ptr noundef %p1, ptr noundef %p2) #5 align 2 {
entry:
  %this.addr = alloca ptr, align 8
  %p1.addr = alloca ptr, align 8
  %p2.addr = alloca ptr, align 8
  store ptr %this, ptr %this.addr, align 8
  store ptr %p1, ptr %p1.addr, align 8
  store ptr %p2, ptr %p2.addr, align 8
  %this1 = load ptr, ptr %this.addr, align 8
  %m_imp = getelementptr inbounds %"class.polynomial::manager", ptr %this1, i32 0, i32 0
  %0 = load ptr, ptr %m_imp, align 8
  %1 = load ptr, ptr %p1.addr, align 8
  %2 = load ptr, ptr %p2.addr, align 8
  %call = call noundef ptr @_ZN10polynomial7manager3imp3mulEPKNS_10polynomialES4_(ptr noundef nonnull align 8 dereferenceable(824) %0, ptr noundef %1, ptr noundef %2)
  ret ptr %call
}