; Function Attrs: mustprogress uwtable
define hidden noundef ptr @_ZN10polynomial7manager3mulEPKNS_10polynomialES3_(ptr nocapture noundef nonnull readonly align 8 dereferenceable(8) %this, ptr noundef %p1, ptr noundef %p2) local_unnamed_addr #4 align 2 {
entry:
  %zero.i = alloca %class.mpz, align 8
  %0 = load ptr, ptr %this, align 8
  call void @llvm.lifetime.start.p0(i64 16, ptr nonnull %zero.i)
  store i32 0, ptr %zero.i, align 8
  %m_kind.i.i = getelementptr inbounds i8, ptr %zero.i, i64 4
  store i8 0, ptr %m_kind.i.i, align 4
  %m_ptr.i.i = getelementptr inbounds i8, ptr %zero.i, i64 8
  store ptr null, ptr %m_ptr.i.i, align 8
  %call.i = call noundef ptr @_ZN10polynomial7manager3imp6muladdEPKNS_10polynomialES4_RK3mpz(ptr noundef nonnull align 8 dereferenceable(824) %0, ptr noundef %p1, ptr noundef %p2, ptr noundef nonnull align 8 dereferenceable(16) %zero.i)
  call void @llvm.lifetime.end.p0(i64 16, ptr nonnull %zero.i)
  ret ptr %call.i
}